target datalayout = "e-m:e-p270:32:32-p271:32:32-p272:64:64-i64:64-i128:128-f80:128-n8:16:32:64-S128"
target triple = "x86_64-pc-linux-gnu"

%"class.llvm::StringRef" = type { ptr, i64 }
%"class.llvm::PredicateExpander" = type { i8, i8, i8, i32, %"class.llvm::StringRef" }
%"class.llvm::STIPredicateFunction" = type { ptr, %"class.std::vector.35", %"class.std::vector.40" }
%"class.std::vector.35" = type { %"struct.std::_Vector_base.36" }
%"struct.std::_Vector_base.36" = type { %"struct.std::_Vector_base<const llvm::Record *, std::allocator<const llvm::Record *>>::_Vector_impl" }
%"struct.std::_Vector_base<const llvm::Record *, std::allocator<const llvm::Record *>>::_Vector_impl" = type { %"struct.std::_Vector_base<const llvm::Record *, std::allocator<const llvm::Record *>>::_Vector_impl_data" }
%"struct.std::_Vector_base<const llvm::Record *, std::allocator<const llvm::Record *>>::_Vector_impl_data" = type { ptr, ptr, ptr }
%"class.std::vector.40" = type { %"struct.std::_Vector_base.41" }
%"struct.std::_Vector_base.41" = type { %"struct.std::_Vector_base<llvm::OpcodeGroup, std::allocator<llvm::OpcodeGroup>>::_Vector_impl" }
%"struct.std::_Vector_base<llvm::OpcodeGroup, std::allocator<llvm::OpcodeGroup>>::_Vector_impl" = type { %"struct.std::_Vector_base<llvm::OpcodeGroup, std::allocator<llvm::OpcodeGroup>>::_Vector_impl_data" }
%"struct.std::_Vector_base<llvm::OpcodeGroup, std::allocator<llvm::OpcodeGroup>>::_Vector_impl_data" = type { ptr, ptr, ptr }
%"class.llvm::STIPredicateExpander" = type <{ %"class.llvm::PredicateExpander", %"class.llvm::StringRef", i8, [7 x i8] }>

@.str.130 = private unnamed_addr constant [12 x i8] c"ExpandForMC\00", align 1

; Function Attrs: mustprogress nounwind uwtable
define linkonce_odr hidden noundef i64 @_ZNSt11char_traitsIcE6lengthEPKc(ptr noundef %0) #0 comdat align 2 {
  %2 = alloca ptr, align 8
  store ptr %0, ptr %2, align 8
  %3 = load ptr, ptr %2, align 8
  %4 = call i64 @strlen(ptr noundef %3) #7
  ret i64 %4
}

; Function Attrs: mustprogress nounwind uwtable
define linkonce_odr hidden noundef zeroext i1 @_ZNK4llvm20STIPredicateExpander22shouldExpandDefinitionEv(ptr noundef nonnull align 8 dereferenceable(41) %0) #0 comdat align 2 {
  %2 = alloca ptr, align 8
  store ptr %0, ptr %2, align 8
  %3 = load ptr, ptr %2, align 8
  %4 = getelementptr inbounds nuw %"class.llvm::STIPredicateExpander", ptr %3, i32 0, i32 2
  %5 = load i8, ptr %4, align 8
  %6 = trunc i8 %5 to i1
  ret i1 %6
}

; Function Attrs: mustprogress nounwind uwtable
define linkonce_odr hidden void @_ZN4llvm9StringRefC2EPKc(ptr noundef nonnull align 8 dereferenceable(16) %0, ptr noundef %1) unnamed_addr #0 comdat align 2 {
  %3 = alloca ptr, align 8
  %4 = alloca ptr, align 8
  store ptr %0, ptr %3, align 8
  store ptr %1, ptr %4, align 8
  %5 = load ptr, ptr %3, align 8
  %6 = getelementptr inbounds nuw %"class.llvm::StringRef", ptr %5, i32 0, i32 0
  %7 = load ptr, ptr %4, align 8
  store ptr %7, ptr %6, align 8
  %8 = getelementptr inbounds nuw %"class.llvm::StringRef", ptr %5, i32 0, i32 1
  %9 = load ptr, ptr %4, align 8
  %10 = icmp ne ptr %9, null
  br i1 %10, label %11, label %14

11:                                               ; preds = %2
  %12 = load ptr, ptr %4, align 8
  %13 = call noundef i64 @_ZNSt11char_traitsIcE6lengthEPKc(ptr noundef %12)
  br label %15

14:                                               ; preds = %2
  br label %15

15:                                               ; preds = %14, %11
  %16 = phi i64 [ %13, %11 ], [ 0, %14 ]
  store i64 %16, ptr %8, align 8
  ret void
}

; Function Attrs: mustprogress nounwind uwtable
define linkonce_odr hidden noundef zeroext i1 @_ZNK4llvm17PredicateExpander17shouldExpandForMCEv(ptr noundef nonnull align 8 dereferenceable(24) %0) #0 comdat align 2 {
  %2 = alloca ptr, align 8
  store ptr %0, ptr %2, align 8
  %3 = load ptr, ptr %2, align 8
  %4 = getelementptr inbounds nuw %"class.llvm::PredicateExpander", ptr %3, i32 0, i32 2
  %5 = load i8, ptr %4, align 2
  %6 = trunc i8 %5 to i1
  ret i1 %6
}

; Function Attrs: mustprogress nounwind uwtable
define linkonce_odr hidden noundef ptr @_ZNK4llvm20STIPredicateFunction14getDeclarationEv(ptr noundef nonnull align 8 dereferenceable(56) %0) #0 comdat align 2 {
  %2 = alloca ptr, align 8
  store ptr %0, ptr %2, align 8
  %3 = load ptr, ptr %2, align 8
  %4 = getelementptr inbounds nuw %"class.llvm::STIPredicateFunction", ptr %3, i32 0, i32 0
  %5 = load ptr, ptr %4, align 8
  ret ptr %5
}

; Function Attrs: mustprogress nounwind uwtable
define dso_local void @_ZN4llvm20STIPredicateExpander18expandSTIPredicateERNS_11raw_ostreamERKNS_20STIPredicateFunctionE(ptr noundef nonnull align 8 dereferenceable(41) %0, ptr noundef nonnull align 8 dereferenceable(48) %1, ptr noundef nonnull align 8 dereferenceable(56) %2) #0 align 2 {
  %4 = alloca ptr, align 8
  %5 = alloca ptr, align 8
  %6 = alloca ptr, align 8
  %7 = alloca ptr, align 8
  %8 = alloca %"class.llvm::StringRef", align 8
  store ptr %0, ptr %4, align 8
  store ptr %1, ptr %5, align 8
  store ptr %2, ptr %6, align 8
  %9 = load ptr, ptr %4, align 8
  %10 = load ptr, ptr %6, align 8
  %11 = call noundef ptr @_ZNK4llvm20STIPredicateFunction14getDeclarationEv(ptr noundef nonnull align 8 dereferenceable(56) %10)
  store ptr %11, ptr %7, align 8
  %12 = call noundef zeroext i1 @_ZNK4llvm17PredicateExpander17shouldExpandForMCEv(ptr noundef nonnull align 8 dereferenceable(24) %9)
  br i1 %12, label %13, label %21

13:                                               ; preds = %3
  %14 = load ptr, ptr %7, align 8
  call void @_ZN4llvm9StringRefC2EPKc(ptr noundef nonnull align 8 dereferenceable(16) %8, ptr noundef @.str.130)
  %15 = getelementptr inbounds nuw { ptr, i64 }, ptr %8, i32 0, i32 0
  %16 = load ptr, ptr %15, align 8
  %17 = getelementptr inbounds nuw { ptr, i64 }, ptr %8, i32 0, i32 1
  %18 = load i64, ptr %17, align 8
  %19 = call noundef zeroext i1 @_ZNK4llvm6Record13getValueAsBitENS_9StringRefE(ptr noundef nonnull align 8 dereferenceable(192) %14, ptr %16, i64 %18)
  br i1 %19, label %21, label %20

20:                                               ; preds = %13
  br label %32

21:                                               ; preds = %13, %3
  %22 = load ptr, ptr %5, align 8
  %23 = load ptr, ptr %6, align 8
  call void @_ZN4llvm20STIPredicateExpander12expandHeaderERNS_11raw_ostreamERKNS_20STIPredicateFunctionE(ptr noundef nonnull align 8 dereferenceable(41) %9, ptr noundef nonnull align 8 dereferenceable(48) %22, ptr noundef nonnull align 8 dereferenceable(56) %23)
  %24 = call noundef zeroext i1 @_ZNK4llvm20STIPredicateExpander22shouldExpandDefinitionEv(ptr noundef nonnull align 8 dereferenceable(41) %9)
  br i1 %24, label %25, label %32

25:                                               ; preds = %21
  %26 = load ptr, ptr %5, align 8
  %27 = load ptr, ptr %6, align 8
  call void @_ZN4llvm20STIPredicateExpander14expandPrologueERNS_11raw_ostreamERKNS_20STIPredicateFunctionE(ptr noundef nonnull align 8 dereferenceable(41) %9, ptr noundef nonnull align 8 dereferenceable(48) %26, ptr noundef nonnull align 8 dereferenceable(56) %27)
  %28 = load ptr, ptr %5, align 8
  %29 = load ptr, ptr %6, align 8
  call void @_ZN4llvm20STIPredicateExpander10expandBodyERNS_11raw_ostreamERKNS_20STIPredicateFunctionE(ptr noundef nonnull align 8 dereferenceable(41) %9, ptr noundef nonnull align 8 dereferenceable(48) %28, ptr noundef nonnull align 8 dereferenceable(56) %29)
  %30 = load ptr, ptr %5, align 8
  %31 = load ptr, ptr %6, align 8
  call void @_ZN4llvm20STIPredicateExpander14expandEpilogueERNS_11raw_ostreamERKNS_20STIPredicateFunctionE(ptr noundef nonnull align 8 dereferenceable(41) %9, ptr noundef nonnull align 8 dereferenceable(48) %30, ptr noundef nonnull align 8 dereferenceable(56) %31)
  br label %32

32:                                               ; preds = %25, %21, %20
  ret void
}