; Function Attrs: mustprogress nounwind uwtable
define dso_local void @_ZN4llvm20STIPredicateExpander18expandSTIPredicateERNS_11raw_ostreamERKNS_20STIPredicateFunctionE(ptr nocapture noundef nonnull align 8 dereferenceable(41) %0, ptr noundef nonnull align 8 dereferenceable(48) %1, ptr nocapture noundef nonnull readonly align 8 dereferenceable(56) %2) local_unnamed_addr #0 align 2 {
  %4 = getelementptr inbounds nuw i8, ptr %0, i64 2
  %5 = load i8, ptr %4, align 2
  %6 = trunc i8 %5 to i1
  br i1 %6, label %7, label %10

7:                                                ; preds = %3
  %8 = load ptr, ptr %2, align 8
  %9 = tail call noundef zeroext i1 @_ZNK4llvm6Record13getValueAsBitENS_9StringRefE(ptr noundef nonnull align 8 dereferenceable(192) %8, ptr nonnull @.str.130, i64 11) #10
  br i1 %9, label %10, label %15

10:                                               ; preds = %7, %3
  tail call void @_ZN4llvm20STIPredicateExpander12expandHeaderERNS_11raw_ostreamERKNS_20STIPredicateFunctionE(ptr noundef nonnull align 8 dereferenceable(41) %0, ptr noundef nonnull align 8 dereferenceable(48) %1, ptr noundef nonnull align 8 dereferenceable(56) %2)
  %11 = getelementptr inbounds nuw i8, ptr %0, i64 40
  %12 = load i8, ptr %11, align 8
  %13 = trunc i8 %12 to i1
  br i1 %13, label %14, label %15

14:                                               ; preds = %10
  tail call void @_ZN4llvm20STIPredicateExpander14expandPrologueERNS_11raw_ostreamERKNS_20STIPredicateFunctionE(ptr noundef nonnull align 8 dereferenceable(41) %0, ptr noundef nonnull align 8 dereferenceable(48) %1, ptr noundef nonnull align 8 dereferenceable(56) %2)
  tail call void @_ZN4llvm20STIPredicateExpander10expandBodyERNS_11raw_ostreamERKNS_20STIPredicateFunctionE(ptr noundef nonnull align 8 dereferenceable(41) %0, ptr noundef nonnull align 8 dereferenceable(48) %1, ptr noundef nonnull align 8 dereferenceable(56) %2)
  tail call void @_ZN4llvm20STIPredicateExpander14expandEpilogueERNS_11raw_ostreamERKNS_20STIPredicateFunctionE(ptr noundef nonnull align 8 dereferenceable(41) %0, ptr noundef nonnull align 8 dereferenceable(48) %1, ptr noundef nonnull align 8 dereferenceable(56) %2)
  br label %15

15:                                               ; preds = %7, %14, %10
  ret void
}